#include <math.h>
#include <stdio.h>
#include <stdlib.h>
#include <string.h>

struct student
{ int num;int a;int b;int sum;int c;};
void main()
{
	int n,i,j,nt,ct;
         struct student stu[100000];
	scanf("%d",&n);  
	for(i=0;i<n;i++)
	{ scanf("%d %d %d",&stu[i].num,&stu[i].a,&stu[i].b);
	stu[i].sum=stu[i].a+stu[i].b;stu[i].c=stu[i].sum;}
	for(i=0;i<3;i++)
		for(j=i+1;j<n;j++)
		{	
			if(stu[i].c<stu[j].c){
				nt=stu[i].num;stu[i].num=stu[j].num;stu[j].num=nt;
				ct=stu[i].c;stu[i].c=stu[j].c;stu[j].c=ct;
			}
		}

   for(i=0;i<3;i++)
		   printf("%d %d\n",stu[i].num,stu[i].c);
}

