; ModuleID = '14/879.c'
source_filename = "14/879.c"
target datalayout = "e-m:e-p270:32:32-p271:32:32-p272:64:64-i64:64-f80:128-n8:16:32:64-S128"
target triple = "x86_64-pc-linux-gnu"

%struct.student = type { i32, i32, i32, i32, i32 }

@.str = private unnamed_addr constant [3 x i8] c"%d\00", align 1
@.str.1 = private unnamed_addr constant [9 x i8] c"%d %d %d\00", align 1
@.str.2 = private unnamed_addr constant [7 x i8] c"%d %d\0A\00", align 1

; Function Attrs: noinline nounwind uwtable
define dso_local void @main() #0 {
  %1 = alloca i32, align 4
  %2 = alloca i32, align 4
  %3 = alloca i32, align 4
  %4 = alloca i32, align 4
  %5 = alloca i32, align 4
  %6 = alloca [100000 x %struct.student], align 16
  %7 = call i32 (i8*, ...) @__isoc99_scanf(i8* getelementptr inbounds ([3 x i8], [3 x i8]* @.str, i64 0, i64 0), i32* %1)
  store i32 0, i32* %2, align 4
  br label %8

8:                                                ; preds = %50, %0
  %9 = load i32, i32* %2, align 4
  %10 = load i32, i32* %1, align 4
  %11 = icmp slt i32 %9, %10
  br i1 %11, label %12, label %53

12:                                               ; preds = %8
  %13 = load i32, i32* %2, align 4
  %14 = sext i32 %13 to i64
  %15 = getelementptr inbounds [100000 x %struct.student], [100000 x %struct.student]* %6, i64 0, i64 %14
  %16 = getelementptr inbounds %struct.student, %struct.student* %15, i32 0, i32 0
  %17 = load i32, i32* %2, align 4
  %18 = sext i32 %17 to i64
  %19 = getelementptr inbounds [100000 x %struct.student], [100000 x %struct.student]* %6, i64 0, i64 %18
  %20 = getelementptr inbounds %struct.student, %struct.student* %19, i32 0, i32 1
  %21 = load i32, i32* %2, align 4
  %22 = sext i32 %21 to i64
  %23 = getelementptr inbounds [100000 x %struct.student], [100000 x %struct.student]* %6, i64 0, i64 %22
  %24 = getelementptr inbounds %struct.student, %struct.student* %23, i32 0, i32 2
  %25 = call i32 (i8*, ...) @__isoc99_scanf(i8* getelementptr inbounds ([9 x i8], [9 x i8]* @.str.1, i64 0, i64 0), i32* %16, i32* %20, i32* %24)
  %26 = load i32, i32* %2, align 4
  %27 = sext i32 %26 to i64
  %28 = getelementptr inbounds [100000 x %struct.student], [100000 x %struct.student]* %6, i64 0, i64 %27
  %29 = getelementptr inbounds %struct.student, %struct.student* %28, i32 0, i32 1
  %30 = load i32, i32* %29, align 4
  %31 = load i32, i32* %2, align 4
  %32 = sext i32 %31 to i64
  %33 = getelementptr inbounds [100000 x %struct.student], [100000 x %struct.student]* %6, i64 0, i64 %32
  %34 = getelementptr inbounds %struct.student, %struct.student* %33, i32 0, i32 2
  %35 = load i32, i32* %34, align 4
  %36 = add nsw i32 %30, %35
  %37 = load i32, i32* %2, align 4
  %38 = sext i32 %37 to i64
  %39 = getelementptr inbounds [100000 x %struct.student], [100000 x %struct.student]* %6, i64 0, i64 %38
  %40 = getelementptr inbounds %struct.student, %struct.student* %39, i32 0, i32 3
  store i32 %36, i32* %40, align 4
  %41 = load i32, i32* %2, align 4
  %42 = sext i32 %41 to i64
  %43 = getelementptr inbounds [100000 x %struct.student], [100000 x %struct.student]* %6, i64 0, i64 %42
  %44 = getelementptr inbounds %struct.student, %struct.student* %43, i32 0, i32 3
  %45 = load i32, i32* %44, align 4
  %46 = load i32, i32* %2, align 4
  %47 = sext i32 %46 to i64
  %48 = getelementptr inbounds [100000 x %struct.student], [100000 x %struct.student]* %6, i64 0, i64 %47
  %49 = getelementptr inbounds %struct.student, %struct.student* %48, i32 0, i32 4
  store i32 %45, i32* %49, align 4
  br label %50

50:                                               ; preds = %12
  %51 = load i32, i32* %2, align 4
  %52 = add nsw i32 %51, 1
  store i32 %52, i32* %2, align 4
  br label %8

53:                                               ; preds = %8
  store i32 0, i32* %2, align 4
  br label %54

54:                                               ; preds = %120, %53
  %55 = load i32, i32* %2, align 4
  %56 = icmp slt i32 %55, 3
  br i1 %56, label %57, label %123

57:                                               ; preds = %54
  %58 = load i32, i32* %2, align 4
  %59 = add nsw i32 %58, 1
  store i32 %59, i32* %3, align 4
  br label %60

60:                                               ; preds = %116, %57
  %61 = load i32, i32* %3, align 4
  %62 = load i32, i32* %1, align 4
  %63 = icmp slt i32 %61, %62
  br i1 %63, label %64, label %119

64:                                               ; preds = %60
  %65 = load i32, i32* %2, align 4
  %66 = sext i32 %65 to i64
  %67 = getelementptr inbounds [100000 x %struct.student], [100000 x %struct.student]* %6, i64 0, i64 %66
  %68 = getelementptr inbounds %struct.student, %struct.student* %67, i32 0, i32 4
  %69 = load i32, i32* %68, align 4
  %70 = load i32, i32* %3, align 4
  %71 = sext i32 %70 to i64
  %72 = getelementptr inbounds [100000 x %struct.student], [100000 x %struct.student]* %6, i64 0, i64 %71
  %73 = getelementptr inbounds %struct.student, %struct.student* %72, i32 0, i32 4
  %74 = load i32, i32* %73, align 4
  %75 = icmp slt i32 %69, %74
  br i1 %75, label %76, label %115

76:                                               ; preds = %64
  %77 = load i32, i32* %2, align 4
  %78 = sext i32 %77 to i64
  %79 = getelementptr inbounds [100000 x %struct.student], [100000 x %struct.student]* %6, i64 0, i64 %78
  %80 = getelementptr inbounds %struct.student, %struct.student* %79, i32 0, i32 0
  %81 = load i32, i32* %80, align 4
  store i32 %81, i32* %4, align 4
  %82 = load i32, i32* %3, align 4
  %83 = sext i32 %82 to i64
  %84 = getelementptr inbounds [100000 x %struct.student], [100000 x %struct.student]* %6, i64 0, i64 %83
  %85 = getelementptr inbounds %struct.student, %struct.student* %84, i32 0, i32 0
  %86 = load i32, i32* %85, align 4
  %87 = load i32, i32* %2, align 4
  %88 = sext i32 %87 to i64
  %89 = getelementptr inbounds [100000 x %struct.student], [100000 x %struct.student]* %6, i64 0, i64 %88
  %90 = getelementptr inbounds %struct.student, %struct.student* %89, i32 0, i32 0
  store i32 %86, i32* %90, align 4
  %91 = load i32, i32* %4, align 4
  %92 = load i32, i32* %3, align 4
  %93 = sext i32 %92 to i64
  %94 = getelementptr inbounds [100000 x %struct.student], [100000 x %struct.student]* %6, i64 0, i64 %93
  %95 = getelementptr inbounds %struct.student, %struct.student* %94, i32 0, i32 0
  store i32 %91, i32* %95, align 4
  %96 = load i32, i32* %2, align 4
  %97 = sext i32 %96 to i64
  %98 = getelementptr inbounds [100000 x %struct.student], [100000 x %struct.student]* %6, i64 0, i64 %97
  %99 = getelementptr inbounds %struct.student, %struct.student* %98, i32 0, i32 4
  %100 = load i32, i32* %99, align 4
  store i32 %100, i32* %5, align 4
  %101 = load i32, i32* %3, align 4
  %102 = sext i32 %101 to i64
  %103 = getelementptr inbounds [100000 x %struct.student], [100000 x %struct.student]* %6, i64 0, i64 %102
  %104 = getelementptr inbounds %struct.student, %struct.student* %103, i32 0, i32 4
  %105 = load i32, i32* %104, align 4
  %106 = load i32, i32* %2, align 4
  %107 = sext i32 %106 to i64
  %108 = getelementptr inbounds [100000 x %struct.student], [100000 x %struct.student]* %6, i64 0, i64 %107
  %109 = getelementptr inbounds %struct.student, %struct.student* %108, i32 0, i32 4
  store i32 %105, i32* %109, align 4
  %110 = load i32, i32* %5, align 4
  %111 = load i32, i32* %3, align 4
  %112 = sext i32 %111 to i64
  %113 = getelementptr inbounds [100000 x %struct.student], [100000 x %struct.student]* %6, i64 0, i64 %112
  %114 = getelementptr inbounds %struct.student, %struct.student* %113, i32 0, i32 4
  store i32 %110, i32* %114, align 4
  br label %115

115:                                              ; preds = %76, %64
  br label %116

116:                                              ; preds = %115
  %117 = load i32, i32* %3, align 4
  %118 = add nsw i32 %117, 1
  store i32 %118, i32* %3, align 4
  br label %60

119:                                              ; preds = %60
  br label %120

120:                                              ; preds = %119
  %121 = load i32, i32* %2, align 4
  %122 = add nsw i32 %121, 1
  store i32 %122, i32* %2, align 4
  br label %54

123:                                              ; preds = %54
  store i32 0, i32* %2, align 4
  br label %124

124:                                              ; preds = %139, %123
  %125 = load i32, i32* %2, align 4
  %126 = icmp slt i32 %125, 3
  br i1 %126, label %127, label %142

127:                                              ; preds = %124
  %128 = load i32, i32* %2, align 4
  %129 = sext i32 %128 to i64
  %130 = getelementptr inbounds [100000 x %struct.student], [100000 x %struct.student]* %6, i64 0, i64 %129
  %131 = getelementptr inbounds %struct.student, %struct.student* %130, i32 0, i32 0
  %132 = load i32, i32* %131, align 4
  %133 = load i32, i32* %2, align 4
  %134 = sext i32 %133 to i64
  %135 = getelementptr inbounds [100000 x %struct.student], [100000 x %struct.student]* %6, i64 0, i64 %134
  %136 = getelementptr inbounds %struct.student, %struct.student* %135, i32 0, i32 4
  %137 = load i32, i32* %136, align 4
  %138 = call i32 (i8*, ...) @printf(i8* getelementptr inbounds ([7 x i8], [7 x i8]* @.str.2, i64 0, i64 0), i32 %132, i32 %137)
  br label %139

139:                                              ; preds = %127
  %140 = load i32, i32* %2, align 4
  %141 = add nsw i32 %140, 1
  store i32 %141, i32* %2, align 4
  br label %124

142:                                              ; preds = %124
  ret void
}

declare dso_local i32 @__isoc99_scanf(i8*, ...) #1

declare dso_local i32 @printf(i8*, ...) #1


!llvm.module.flags = !{!0}
!llvm.ident = !{!1}

!0 = !{i32 1, !"wchar_size", i32 4}
!1 = !{!"clang version 10.0.0-4ubuntu1 "}
